target datalayout = "e-m:e-p270:32:32-p271:32:32-p272:64:64-i64:64-i128:128-f80:128-n8:16:32:64-S128"
target triple = "x86_64-pc-linux-gnu"

%struct.t_idef = type { i32, i32, ptr, ptr, float, ptr, ptr, [95 x %struct.t_ilist], i32 }
%struct.t_ilist = type { i32, ptr, i32 }

; Function Attrs: mustprogress nounwind uwtable
define void @_Z9init_idefP6t_idef(ptr noundef %0) #5 {
  %2 = alloca ptr, align 8
  %3 = alloca i32, align 4
  store ptr %0, ptr %2, align 8, !tbaa !113
  %4 = load ptr, ptr %2, align 8, !tbaa !113
  %5 = getelementptr inbounds nuw %struct.t_idef, ptr %4, i32 0, i32 0
  store i32 0, ptr %5, align 8, !tbaa !117
  %6 = load ptr, ptr %2, align 8, !tbaa !113
  %7 = getelementptr inbounds nuw %struct.t_idef, ptr %6, i32 0, i32 1
  store i32 0, ptr %7, align 4, !tbaa !115
  %8 = load ptr, ptr %2, align 8, !tbaa !113
  %9 = getelementptr inbounds nuw %struct.t_idef, ptr %8, i32 0, i32 2
  store ptr null, ptr %9, align 8, !tbaa !118
  %10 = load ptr, ptr %2, align 8, !tbaa !113
  %11 = getelementptr inbounds nuw %struct.t_idef, ptr %10, i32 0, i32 3
  store ptr null, ptr %11, align 8, !tbaa !119
  %12 = load ptr, ptr %2, align 8, !tbaa !113
  %13 = getelementptr inbounds nuw %struct.t_idef, ptr %12, i32 0, i32 4
  store float 0.000000e+00, ptr %13, align 8, !tbaa !121
  %14 = load ptr, ptr %2, align 8, !tbaa !113
  %15 = getelementptr inbounds nuw %struct.t_idef, ptr %14, i32 0, i32 5
  store ptr null, ptr %15, align 8, !tbaa !131
  %16 = load ptr, ptr %2, align 8, !tbaa !113
  %17 = getelementptr inbounds nuw %struct.t_idef, ptr %16, i32 0, i32 6
  store ptr null, ptr %17, align 8, !tbaa !132
  call void @llvm.lifetime.start.p0(i64 4, ptr %3) #17
  store i32 0, ptr %3, align 4, !tbaa !9
  br label %18

18:                                               ; preds = %41, %1
  %19 = load i32, ptr %3, align 4, !tbaa !9
  %20 = icmp slt i32 %19, 95
  br i1 %20, label %22, label %21

21:                                               ; preds = %18
  call void @llvm.lifetime.end.p0(i64 4, ptr %3) #17
  br label %44

22:                                               ; preds = %18
  %23 = load ptr, ptr %2, align 8, !tbaa !113
  %24 = getelementptr inbounds nuw %struct.t_idef, ptr %23, i32 0, i32 7
  %25 = load i32, ptr %3, align 4, !tbaa !9
  %26 = sext i32 %25 to i64
  %27 = getelementptr inbounds [95 x %struct.t_ilist], ptr %24, i64 0, i64 %26
  %28 = getelementptr inbounds nuw %struct.t_ilist, ptr %27, i32 0, i32 1
  store ptr null, ptr %28, align 8, !tbaa !126
  %29 = load ptr, ptr %2, align 8, !tbaa !113
  %30 = getelementptr inbounds nuw %struct.t_idef, ptr %29, i32 0, i32 7
  %31 = load i32, ptr %3, align 4, !tbaa !9
  %32 = sext i32 %31 to i64
  %33 = getelementptr inbounds [95 x %struct.t_ilist], ptr %30, i64 0, i64 %32
  %34 = getelementptr inbounds nuw %struct.t_ilist, ptr %33, i32 0, i32 2
  store i32 0, ptr %34, align 8, !tbaa !133
  %35 = load ptr, ptr %2, align 8, !tbaa !113
  %36 = getelementptr inbounds nuw %struct.t_idef, ptr %35, i32 0, i32 7
  %37 = load i32, ptr %3, align 4, !tbaa !9
  %38 = sext i32 %37 to i64
  %39 = getelementptr inbounds [95 x %struct.t_ilist], ptr %36, i64 0, i64 %38
  %40 = getelementptr inbounds nuw %struct.t_ilist, ptr %39, i32 0, i32 0
  store i32 0, ptr %40, align 8, !tbaa !130
  br label %41

41:                                               ; preds = %22
  %42 = load i32, ptr %3, align 4, !tbaa !9
  %43 = add nsw i32 %42, 1
  store i32 %43, ptr %3, align 4, !tbaa !9
  br label %18, !llvm.loop !134

44:                                               ; preds = %21
  ret void
}