; Function Attrs: mustprogress nofree norecurse nosync nounwind memory(argmem: write) uwtable
define void @_Z9init_idefP6t_idef(ptr noundef writeonly captures(none) initializes((0, 28), (32, 48)) %0) local_unnamed_addr #13 {
  %2 = getelementptr inbounds nuw i8, ptr %0, i64 32
  %3 = getelementptr inbounds nuw i8, ptr %0, i64 48
  tail call void @llvm.memset.p0.i64(ptr noundef nonnull align 8 dereferenceable(28) %0, i8 0, i64 28, i1 false)
  tail call void @llvm.memset.p0.i64(ptr noundef nonnull align 8 dereferenceable(16) %2, i8 0, i64 16, i1 false)
  br label %5

4:                                                ; preds = %5
  ret void

5:                                                ; preds = %1, %5
  %indvars.iv = phi i64 [ 0, %1 ], [ %indvars.iv.next, %5 ]
  %6 = getelementptr inbounds nuw [95 x %struct.t_ilist], ptr %3, i64 0, i64 %indvars.iv
  %7 = getelementptr inbounds nuw i8, ptr %6, i64 8
  store ptr null, ptr %7, align 8, !tbaa !52
  %8 = getelementptr inbounds nuw i8, ptr %6, i64 16
  store i32 0, ptr %8, align 8, !tbaa !56
  store i32 0, ptr %6, align 8, !tbaa !50
  %indvars.iv.next = add nuw nsw i64 %indvars.iv, 1
  %exitcond.not = icmp eq i64 %indvars.iv.next, 95
  br i1 %exitcond.not, label %4, label %5, !llvm.loop !57
}